(dp1
(I6
I1
tp2
(dp3
S'primary_path'
p4
(lp5
I6
aI4
aI5
aI2
aI1
asS'faults'
p6
(dp7
sS'pp_edge'
p8
g2
ss(I1
I6
tp9
(dp10
g4
(lp11
I1
aI2
aI3
aI4
aI6
asg6
(dp12
(I3
I4
tp13
(dp14
S'detour_path'
p15
(lp16
I2
aI5
aI4
asS'redirect_node'
p17
I2
sS'fw_back_path'
p18
(lp19
I2
aI3
asS'detect_node'
p20
I3
sssg8
g9
ss.